target datalayout = "e-m:e-p270:32:32-p271:32:32-p272:64:64-i64:64-f80:128-n8:16:32:64-S128"
target triple = "x86_64-pc-linux-gnu"

@.str = private unnamed_addr constant [3 x i8] c"%d\00", align 1
@.str.1 = private unnamed_addr constant [3 x i8] c"%s\00", align 1
@.str.2 = private unnamed_addr constant [3 x i8] c"NO\00", align 1
@.str.3 = private unnamed_addr constant [4 x i8] c"%d\0A\00", align 1
@.str.4 = private unnamed_addr constant [3 x i8] c"%c\00", align 1
@.str.5 = private unnamed_addr constant [2 x i8] c"\0A\00", align 1

; Function Attrs: noinline nounwind uwtable
define dso_local i32 @main() #0 {
  %1 = alloca i32, align 4
  %2 = alloca i32, align 4
  %3 = alloca i32, align 4
  %4 = alloca i32, align 4
  %5 = alloca i32, align 4
  %6 = alloca i32, align 4
  %7 = alloca i32, align 4
  %8 = alloca [510 x i8], align 16
  %9 = alloca [510 x i32], align 16
  store i32 0, i32* %1, align 4
  %10 = bitcast [510 x i32]* %9 to i8*
  call void @llvm.memset.p0i8.i64(i8* align 16 %10, i8 0, i64 2040, i1 false)
  %11 = call i32 (i8*, ...) @__isoc99_scanf(i8* getelementptr inbounds ([3 x i8], [3 x i8]* @.str, i64 0, i64 0), i32* %7)
  %12 = getelementptr inbounds [510 x i8], [510 x i8]* %8, i64 0, i64 0
  %13 = call i32 (i8*, ...) @__isoc99_scanf(i8* getelementptr inbounds ([3 x i8], [3 x i8]* @.str.1, i64 0, i64 0), i8* %12)
  %14 = getelementptr inbounds [510 x i8], [510 x i8]* %8, i64 0, i64 0
  %15 = call i64 @strlen(i8* %14) #4
  %16 = sub i64 %15, 1
  %17 = trunc i64 %16 to i32
  store i32 %17, i32* %2, align 4
  store i32 0, i32* %3, align 4
  br label %18

18:                                               ; preds = %78, %0
  %19 = load i32, i32* %3, align 4
  %20 = load i32, i32* %2, align 4
  %21 = load i32, i32* %7, align 4
  %22 = sub nsw i32 %20, %21
  %23 = add nsw i32 %22, 1
  %24 = icmp sle i32 %19, %23
  br i1 %24, label %25, label %81

25:                                               ; preds = %18
  %26 = load i32, i32* %3, align 4
  store i32 %26, i32* %4, align 4
  br label %27

27:                                               ; preds = %74, %25
  %28 = load i32, i32* %4, align 4
  %29 = load i32, i32* %2, align 4
  %30 = load i32, i32* %7, align 4
  %31 = sub nsw i32 %29, %30
  %32 = add nsw i32 %31, 1
  %33 = icmp sle i32 %28, %32
  br i1 %33, label %34, label %77

34:                                               ; preds = %27
  store i32 0, i32* %5, align 4
  br label %35

35:                                               ; preds = %59, %34
  %36 = load i32, i32* %5, align 4
  %37 = load i32, i32* %7, align 4
  %38 = sub nsw i32 %37, 1
  %39 = icmp sle i32 %36, %38
  br i1 %39, label %40, label %62

40:                                               ; preds = %35
  %41 = load i32, i32* %4, align 4
  %42 = load i32, i32* %5, align 4
  %43 = add nsw i32 %41, %42
  %44 = sext i32 %43 to i64
  %45 = getelementptr inbounds [510 x i8], [510 x i8]* %8, i64 0, i64 %44
  %46 = load i8, i8* %45, align 1
  %47 = sext i8 %46 to i32
  %48 = load i32, i32* %3, align 4
  %49 = load i32, i32* %5, align 4
  %50 = add nsw i32 %48, %49
  %51 = sext i32 %50 to i64
  %52 = getelementptr inbounds [510 x i8], [510 x i8]* %8, i64 0, i64 %51
  %53 = load i8, i8* %52, align 1
  %54 = sext i8 %53 to i32
  %55 = icmp ne i32 %47, %54
  br i1 %55, label %56, label %57

56:                                               ; preds = %40
  br label %62

57:                                               ; preds = %40
  br label %58

58:                                               ; preds = %57
  br label %59

59:                                               ; preds = %58
  %60 = load i32, i32* %5, align 4
  %61 = add nsw i32 %60, 1
  store i32 %61, i32* %5, align 4
  br label %35

62:                                               ; preds = %56, %35
  %63 = load i32, i32* %5, align 4
  %64 = load i32, i32* %7, align 4
  %65 = icmp eq i32 %63, %64
  br i1 %65, label %66, label %72

66:                                               ; preds = %62
  %67 = load i32, i32* %3, align 4
  %68 = sext i32 %67 to i64
  %69 = getelementptr inbounds [510 x i32], [510 x i32]* %9, i64 0, i64 %68
  %70 = load i32, i32* %69, align 4
  %71 = add nsw i32 %70, 1
  store i32 %71, i32* %69, align 4
  br label %73

72:                                               ; preds = %62
  br label %73

73:                                               ; preds = %72, %66
  br label %74

74:                                               ; preds = %73
  %75 = load i32, i32* %4, align 4
  %76 = add nsw i32 %75, 1
  store i32 %76, i32* %4, align 4
  br label %27

77:                                               ; preds = %27
  br label %78

78:                                               ; preds = %77
  %79 = load i32, i32* %3, align 4
  %80 = add nsw i32 %79, 1
  store i32 %80, i32* %3, align 4
  br label %18

81:                                               ; preds = %18
  %82 = getelementptr inbounds [510 x i32], [510 x i32]* %9, i64 0, i64 0
  %83 = load i32, i32* %82, align 16
  store i32 %83, i32* %6, align 4
  store i32 0, i32* %3, align 4
  br label %84

84:                                               ; preds = %105, %81
  %85 = load i32, i32* %3, align 4
  %86 = load i32, i32* %2, align 4
  %87 = load i32, i32* %7, align 4
  %88 = sub nsw i32 %86, %87
  %89 = add nsw i32 %88, 1
  %90 = icmp sle i32 %85, %89
  br i1 %90, label %91, label %108

91:                                               ; preds = %84
  %92 = load i32, i32* %3, align 4
  %93 = sext i32 %92 to i64
  %94 = getelementptr inbounds [510 x i32], [510 x i32]* %9, i64 0, i64 %93
  %95 = load i32, i32* %94, align 4
  %96 = load i32, i32* %6, align 4
  %97 = icmp sgt i32 %95, %96
  br i1 %97, label %98, label %103

98:                                               ; preds = %91
  %99 = load i32, i32* %3, align 4
  %100 = sext i32 %99 to i64
  %101 = getelementptr inbounds [510 x i32], [510 x i32]* %9, i64 0, i64 %100
  %102 = load i32, i32* %101, align 4
  store i32 %102, i32* %6, align 4
  br label %104

103:                                              ; preds = %91
  br label %104

104:                                              ; preds = %103, %98
  br label %105

105:                                              ; preds = %104
  %106 = load i32, i32* %3, align 4
  %107 = add nsw i32 %106, 1
  store i32 %107, i32* %3, align 4
  br label %84

108:                                              ; preds = %84
  %109 = load i32, i32* %6, align 4
  %110 = icmp eq i32 %109, 1
  br i1 %110, label %111, label %113

111:                                              ; preds = %108
  %112 = call i32 (i8*, ...) @printf(i8* getelementptr inbounds ([3 x i8], [3 x i8]* @.str.2, i64 0, i64 0))
  br label %155

113:                                              ; preds = %108
  %114 = load i32, i32* %6, align 4
  %115 = call i32 (i8*, ...) @printf(i8* getelementptr inbounds ([4 x i8], [4 x i8]* @.str.3, i64 0, i64 0), i32 %114)
  store i32 0, i32* %3, align 4
  br label %116

116:                                              ; preds = %151, %113
  %117 = load i32, i32* %3, align 4
  %118 = load i32, i32* %2, align 4
  %119 = load i32, i32* %7, align 4
  %120 = sub nsw i32 %118, %119
  %121 = add nsw i32 %120, 1
  %122 = icmp sle i32 %117, %121
  br i1 %122, label %123, label %154

123:                                              ; preds = %116
  %124 = load i32, i32* %3, align 4
  %125 = sext i32 %124 to i64
  %126 = getelementptr inbounds [510 x i32], [510 x i32]* %9, i64 0, i64 %125
  %127 = load i32, i32* %126, align 4
  %128 = load i32, i32* %6, align 4
  %129 = icmp eq i32 %127, %128
  br i1 %129, label %130, label %150

130:                                              ; preds = %123
  store i32 0, i32* %4, align 4
  br label %131

131:                                              ; preds = %145, %130
  %132 = load i32, i32* %4, align 4
  %133 = load i32, i32* %7, align 4
  %134 = sub nsw i32 %133, 1
  %135 = icmp sle i32 %132, %134
  br i1 %135, label %136, label %148

136:                                              ; preds = %131
  %137 = load i32, i32* %3, align 4
  %138 = load i32, i32* %4, align 4
  %139 = add nsw i32 %137, %138
  %140 = sext i32 %139 to i64
  %141 = getelementptr inbounds [510 x i8], [510 x i8]* %8, i64 0, i64 %140
  %142 = load i8, i8* %141, align 1
  %143 = sext i8 %142 to i32
  %144 = call i32 (i8*, ...) @printf(i8* getelementptr inbounds ([3 x i8], [3 x i8]* @.str.4, i64 0, i64 0), i32 %143)
  br label %145

145:                                              ; preds = %136
  %146 = load i32, i32* %4, align 4
  %147 = add nsw i32 %146, 1
  store i32 %147, i32* %4, align 4
  br label %131

148:                                              ; preds = %131
  %149 = call i32 (i8*, ...) @printf(i8* getelementptr inbounds ([2 x i8], [2 x i8]* @.str.5, i64 0, i64 0))
  br label %150

150:                                              ; preds = %148, %123
  br label %151

151:                                              ; preds = %150
  %152 = load i32, i32* %3, align 4
  %153 = add nsw i32 %152, 1
  store i32 %153, i32* %3, align 4
  br label %116

154:                                              ; preds = %116
  br label %155

155:                                              ; preds = %154, %111
  %156 = load i32, i32* %1, align 4
  ret i32 %156
}